Process: explorer.exe Pid: 1432 Address: 0x28d0000
Vad Tag: VadS Protection: PAGE_EXECUTE_READWRITE
Flags: CommitCharge: 16, MemCommit: 1, PrivateMemory: 1, Protection: 6

0x00000000028d0000  41 ba 80 00 00 00 48 b8 38 a1 35 ff fe 07 00 00   A.....H.8.5.....
0x00000000028d0010  48 ff 20 90 41 ba 81 00 00 00 48 b8 38 a1 35 ff   H...A.....H.8.5.
0x00000000028d0020  fe 07 00 00 48 ff 20 90 41 ba 82 00 00 00 48 b8   ....H...A.....H.
0x00000000028d0030  38 a1 35 ff fe 07 00 00 48 ff 20 90 41 ba 83 00   8.5.....H...A...

0x00000000028d0000 41               INC ECX
0x00000000028d0001 ba80000000       MOV EDX, 0x80
0x00000000028d0006 48               DEC EAX
0x00000000028d0007 b838a135ff       MOV EAX, 0xff35a138
0x00000000028d000c fe07             INC BYTE [EDI]
0x00000000028d000e 0000             ADD [EAX], AL
0x00000000028d0010 48               DEC EAX
0x00000000028d0011 ff20             JMP DWORD [EAX]
0x00000000028d0013 90               NOP
0x00000000028d0014 41               INC ECX
0x00000000028d0015 ba81000000       MOV EDX, 0x81
0x00000000028d001a 48               DEC EAX
0x00000000028d001b b838a135ff       MOV EAX, 0xff35a138
0x00000000028d0020 fe07             INC BYTE [EDI]
0x00000000028d0022 0000             ADD [EAX], AL
0x00000000028d0024 48               DEC EAX
0x00000000028d0025 ff20             JMP DWORD [EAX]
0x00000000028d0027 90               NOP
0x00000000028d0028 41               INC ECX
0x00000000028d0029 ba82000000       MOV EDX, 0x82
0x00000000028d002e 48               DEC EAX
0x00000000028d002f b838a135ff       MOV EAX, 0xff35a138
0x00000000028d0034 fe07             INC BYTE [EDI]
0x00000000028d0036 0000             ADD [EAX], AL
0x00000000028d0038 48               DEC EAX
0x00000000028d0039 ff20             JMP DWORD [EAX]
0x00000000028d003b 90               NOP
0x00000000028d003c 41               INC ECX
0x00000000028d003d ba               DB 0xba
0x00000000028d003e 83               DB 0x83
0x00000000028d003f 00               DB 0x0

Process: explorer.exe Pid: 1432 Address: 0x3b30000
Vad Tag: VadS Protection: PAGE_EXECUTE_READWRITE
Flags: CommitCharge: 1, MemCommit: 1, PrivateMemory: 1, Protection: 6

0x0000000003b30000  00 00 00 00 00 00 00 00 00 00 00 00 00 00 00 00   ................
0x0000000003b30010  00 00 00 00 00 00 00 00 00 00 00 00 00 00 00 00   ................
0x0000000003b30020  00 00 b3 03 00 00 00 00 00 00 00 00 00 00 00 00   ................
0x0000000003b30030  00 00 00 00 00 00 00 00 00 00 00 00 00 00 00 00   ................

0x0000000003b30000 0000             ADD [EAX], AL
0x0000000003b30002 0000             ADD [EAX], AL
0x0000000003b30004 0000             ADD [EAX], AL
0x0000000003b30006 0000             ADD [EAX], AL
0x0000000003b30008 0000             ADD [EAX], AL
0x0000000003b3000a 0000             ADD [EAX], AL
0x0000000003b3000c 0000             ADD [EAX], AL
0x0000000003b3000e 0000             ADD [EAX], AL
0x0000000003b30010 0000             ADD [EAX], AL
0x0000000003b30012 0000             ADD [EAX], AL
0x0000000003b30014 0000             ADD [EAX], AL
0x0000000003b30016 0000             ADD [EAX], AL
0x0000000003b30018 0000             ADD [EAX], AL
0x0000000003b3001a 0000             ADD [EAX], AL
0x0000000003b3001c 0000             ADD [EAX], AL
0x0000000003b3001e 0000             ADD [EAX], AL
0x0000000003b30020 0000             ADD [EAX], AL
0x0000000003b30022 b303             MOV BL, 0x3
0x0000000003b30024 0000             ADD [EAX], AL
0x0000000003b30026 0000             ADD [EAX], AL
0x0000000003b30028 0000             ADD [EAX], AL
0x0000000003b3002a 0000             ADD [EAX], AL
0x0000000003b3002c 0000             ADD [EAX], AL
0x0000000003b3002e 0000             ADD [EAX], AL
0x0000000003b30030 0000             ADD [EAX], AL
0x0000000003b30032 0000             ADD [EAX], AL
0x0000000003b30034 0000             ADD [EAX], AL
0x0000000003b30036 0000             ADD [EAX], AL
0x0000000003b30038 0000             ADD [EAX], AL
0x0000000003b3003a 0000             ADD [EAX], AL
0x0000000003b3003c 0000             ADD [EAX], AL
0x0000000003b3003e 0000             ADD [EAX], AL

Process: wmpnetwk.exe Pid: 2628 Address: 0x150000
Vad Tag: VadS Protection: PAGE_EXECUTE_READWRITE
Flags: CommitCharge: 16, MemCommit: 1, PrivateMemory: 1, Protection: 6

0x0000000000150000  41 ba 80 00 00 00 48 b8 38 a1 35 ff fe 07 00 00   A.....H.8.5.....
0x0000000000150010  48 ff 20 90 41 ba 81 00 00 00 48 b8 38 a1 35 ff   H...A.....H.8.5.
0x0000000000150020  fe 07 00 00 48 ff 20 90 41 ba 82 00 00 00 48 b8   ....H...A.....H.
0x0000000000150030  38 a1 35 ff fe 07 00 00 48 ff 20 90 41 ba 83 00   8.5.....H...A...

0x0000000000150000 41               INC ECX
0x0000000000150001 ba80000000       MOV EDX, 0x80
0x0000000000150006 48               DEC EAX
0x0000000000150007 b838a135ff       MOV EAX, 0xff35a138
0x000000000015000c fe07             INC BYTE [EDI]
0x000000000015000e 0000             ADD [EAX], AL
0x0000000000150010 48               DEC EAX
0x0000000000150011 ff20             JMP DWORD [EAX]
0x0000000000150013 90               NOP
0x0000000000150014 41               INC ECX
0x0000000000150015 ba81000000       MOV EDX, 0x81
0x000000000015001a 48               DEC EAX
0x000000000015001b b838a135ff       MOV EAX, 0xff35a138
0x0000000000150020 fe07             INC BYTE [EDI]
0x0000000000150022 0000             ADD [EAX], AL
0x0000000000150024 48               DEC EAX
0x0000000000150025 ff20             JMP DWORD [EAX]
0x0000000000150027 90               NOP
0x0000000000150028 41               INC ECX
0x0000000000150029 ba82000000       MOV EDX, 0x82
0x000000000015002e 48               DEC EAX
0x000000000015002f b838a135ff       MOV EAX, 0xff35a138
0x0000000000150034 fe07             INC BYTE [EDI]
0x0000000000150036 0000             ADD [EAX], AL
0x0000000000150038 48               DEC EAX
0x0000000000150039 ff20             JMP DWORD [EAX]
0x000000000015003b 90               NOP
0x000000000015003c 41               INC ECX
0x000000000015003d ba               DB 0xba
0x000000000015003e 83               DB 0x83
0x000000000015003f 00               DB 0x0

Process: WmiPrvSE.exe Pid: 2436 Address: 0x1970000
Vad Tag: VadS Protection: PAGE_EXECUTE_READWRITE
Flags: CommitCharge: 2, PrivateMemory: 1, Protection: 6

0x0000000001970000  00 00 00 00 00 00 00 00 55 33 1a d7 74 2e 00 01   ........U3..t...
0x0000000001970010  ee ff ee ff 00 00 00 00 28 01 97 01 00 00 00 00   ........(.......
0x0000000001970020  28 01 97 01 00 00 00 00 00 00 97 01 00 00 00 00   (...............
0x0000000001970030  00 00 97 01 00 00 00 00 80 00 00 00 00 00 00 00   ................

0x0000000001970000 0000             ADD [EAX], AL
0x0000000001970002 0000             ADD [EAX], AL
0x0000000001970004 0000             ADD [EAX], AL
0x0000000001970006 0000             ADD [EAX], AL
0x0000000001970008 55               PUSH EBP
0x0000000001970009 331a             XOR EBX, [EDX]
0x000000000197000b d7               XLAT BYTE [EBX+AL]
0x000000000197000c 742e             JZ 0x197003c
0x000000000197000e 0001             ADD [ECX], AL
0x0000000001970010 ee               OUT DX, AL
0x0000000001970011 ff               DB 0xff
0x0000000001970012 ee               OUT DX, AL
0x0000000001970013 ff00             INC DWORD [EAX]
0x0000000001970015 0000             ADD [EAX], AL
0x0000000001970017 0028             ADD [EAX], CH
0x0000000001970019 019701000000     ADD [EDI+0x1], EDX
0x000000000197001f 0028             ADD [EAX], CH
0x0000000001970021 019701000000     ADD [EDI+0x1], EDX
0x0000000001970027 0000             ADD [EAX], AL
0x0000000001970029 009701000000     ADD [EDI+0x1], DL
0x000000000197002f 0000             ADD [EAX], AL
0x0000000001970031 009701000000     ADD [EDI+0x1], DL
0x0000000001970037 008000000000     ADD [EAX+0x0], AL
0x000000000197003d 0000             ADD [EAX], AL
0x000000000197003f 00               DB 0x0

Process: WmiPrvSE.exe Pid: 2436 Address: 0x1710000
Vad Tag: VadS Protection: PAGE_EXECUTE_READWRITE
Flags: CommitCharge: 2, PrivateMemory: 1, Protection: 6

0x0000000001710000  00 00 00 00 00 00 00 00 5b be 97 e7 5e 35 00 01   ........[...^5..
0x0000000001710010  ee ff ee ff 00 00 00 00 28 01 71 01 00 00 00 00   ........(.q.....
0x0000000001710020  28 01 71 01 00 00 00 00 00 00 71 01 00 00 00 00   (.q.......q.....
0x0000000001710030  00 00 71 01 00 00 00 00 80 00 00 00 00 00 00 00   ..q.............

0x0000000001710000 0000             ADD [EAX], AL
0x0000000001710002 0000             ADD [EAX], AL
0x0000000001710004 0000             ADD [EAX], AL
0x0000000001710006 0000             ADD [EAX], AL
0x0000000001710008 5b               POP EBX
0x0000000001710009 be97e75e35       MOV ESI, 0x355ee797
0x000000000171000e 0001             ADD [ECX], AL
0x0000000001710010 ee               OUT DX, AL
0x0000000001710011 ff               DB 0xff
0x0000000001710012 ee               OUT DX, AL
0x0000000001710013 ff00             INC DWORD [EAX]
0x0000000001710015 0000             ADD [EAX], AL
0x0000000001710017 0028             ADD [EAX], CH
0x0000000001710019 017101           ADD [ECX+0x1], ESI
0x000000000171001c 0000             ADD [EAX], AL
0x000000000171001e 0000             ADD [EAX], AL
0x0000000001710020 2801             SUB [ECX], AL
0x0000000001710022 7101             JNO 0x1710025
0x0000000001710024 0000             ADD [EAX], AL
0x0000000001710026 0000             ADD [EAX], AL
0x0000000001710028 0000             ADD [EAX], AL
0x000000000171002a 7101             JNO 0x171002d
0x000000000171002c 0000             ADD [EAX], AL
0x000000000171002e 0000             ADD [EAX], AL
0x0000000001710030 0000             ADD [EAX], AL
0x0000000001710032 7101             JNO 0x1710035
0x0000000001710034 0000             ADD [EAX], AL
0x0000000001710036 0000             ADD [EAX], AL
0x0000000001710038 800000           ADD BYTE [EAX], 0x0
0x000000000171003b 0000             ADD [EAX], AL
0x000000000171003d 0000             ADD [EAX], AL
0x000000000171003f 00               DB 0x0

Process: EXCEL.EXE Pid: 1272 Address: 0x48d0000
Vad Tag: VadS Protection: PAGE_EXECUTE_READWRITE
Flags: CommitCharge: 1, PrivateMemory: 1, Protection: 6

0x00000000048d0000  ed e1 1f f6 63 14 00 01 ee ff ee ff 00 00 00 00   ....c...........
0x00000000048d0010  a8 00 8d 04 a8 00 8d 04 00 00 8d 04 00 00 8d 04   ................
0x00000000048d0020  40 00 00 00 88 05 8d 04 00 00 91 04 3f 00 00 00   @...........?...
0x00000000048d0030  01 00 00 00 00 00 00 00 f0 0f 8d 04 f0 0f 8d 04   ................

0x00000000048d0000 ed               IN EAX, DX
0x00000000048d0001 e11f             LOOPZ 0x48d0022
0x00000000048d0003 f66314           MUL BYTE [EBX+0x14]
0x00000000048d0006 0001             ADD [ECX], AL
0x00000000048d0008 ee               OUT DX, AL
0x00000000048d0009 ff               DB 0xff
0x00000000048d000a ee               OUT DX, AL
0x00000000048d000b ff00             INC DWORD [EAX]
0x00000000048d000d 0000             ADD [EAX], AL
0x00000000048d000f 00a8008d04a8     ADD [EAX-0x57fb7300], CH
0x00000000048d0015 008d0400008d     ADD [EBP-0x72fffffc], CL
0x00000000048d001b 0400             ADD AL, 0x0
0x00000000048d001d 008d04400000     ADD [EBP+0x4004], CL
0x00000000048d0023 0088058d0400     ADD [EAX+0x48d05], CL
0x00000000048d0029 0091043f0000     ADD [ECX+0x3f04], DL
0x00000000048d002f 0001             ADD [ECX], AL
0x00000000048d0031 0000             ADD [EAX], AL
0x00000000048d0033 0000             ADD [EAX], AL
0x00000000048d0035 0000             ADD [EAX], AL
0x00000000048d0037 00f0             ADD AL, DH
0x00000000048d0039 0f8d04f00f8d     JGE 0x919cf043
0x00000000048d003f 04               DB 0x4

Process: EXCEL.EXE Pid: 1272 Address: 0x8410000
Vad Tag: VadS Protection: PAGE_EXECUTE_READWRITE
Flags: CommitCharge: 1, PrivateMemory: 1, Protection: 6

0x0000000008410000  3a c2 11 cc 19 e2 00 01 ee ff ee ff 00 00 00 00   :...............
0x0000000008410010  a8 00 41 08 a8 00 41 08 00 00 41 08 00 00 41 08   ..A...A...A...A.
0x0000000008410020  40 00 00 00 88 05 41 08 00 00 45 08 3f 00 00 00   @.....A...E.?...
0x0000000008410030  01 00 00 00 00 00 00 00 f0 0f 41 08 f0 0f 41 08   ..........A...A.

0x0000000008410000 3ac2             CMP AL, DL
0x0000000008410002 11cc             ADC ESP, ECX
0x0000000008410004 19e2             SBB EDX, ESP
0x0000000008410006 0001             ADD [ECX], AL
0x0000000008410008 ee               OUT DX, AL
0x0000000008410009 ff               DB 0xff
0x000000000841000a ee               OUT DX, AL
0x000000000841000b ff00             INC DWORD [EAX]
0x000000000841000d 0000             ADD [EAX], AL
0x000000000841000f 00a8004108a8     ADD [EAX-0x57f7bf00], CH
0x0000000008410015 004108           ADD [ECX+0x8], AL
0x0000000008410018 0000             ADD [EAX], AL
0x000000000841001a 41               INC ECX
0x000000000841001b 0800             OR [EAX], AL
0x000000000841001d 004108           ADD [ECX+0x8], AL
0x0000000008410020 40               INC EAX
0x0000000008410021 0000             ADD [EAX], AL
0x0000000008410023 008805410800     ADD [EAX+0x84105], CL
0x0000000008410029 004508           ADD [EBP+0x8], AL
0x000000000841002c 3f               AAS
0x000000000841002d 0000             ADD [EAX], AL
0x000000000841002f 0001             ADD [ECX], AL
0x0000000008410031 0000             ADD [EAX], AL
0x0000000008410033 0000             ADD [EAX], AL
0x0000000008410035 0000             ADD [EAX], AL
0x0000000008410037 00f0             ADD AL, DH
0x0000000008410039 0f4108           CMOVNO ECX, [EAX]
0x000000000841003c f00f4108         CMOVNO ECX, [EAX]

Process: EXCEL.EXE Pid: 1272 Address: 0x35760000
Vad Tag: VadS Protection: PAGE_EXECUTE_READWRITE
Flags: CommitCharge: 16, MemCommit: 1, PrivateMemory: 1, Protection: 6

0x0000000035760000  64 74 72 52 00 00 00 00 18 03 76 35 00 00 00 00   dtrR......v5....
0x0000000035760010  00 00 00 00 00 00 00 00 00 00 00 00 00 00 00 00   ................
0x0000000035760020  00 00 00 00 00 00 00 00 00 00 00 00 00 00 00 00   ................
0x0000000035760030  00 00 00 00 00 00 00 00 00 00 00 00 00 00 00 00   ................

0x0000000035760000 647472           JZ 0x35760075
0x0000000035760003 52               PUSH EDX
0x0000000035760004 0000             ADD [EAX], AL
0x0000000035760006 0000             ADD [EAX], AL
0x0000000035760008 1803             SBB [EBX], AL
0x000000003576000a 7635             JBE 0x35760041
0x000000003576000c 0000             ADD [EAX], AL
0x000000003576000e 0000             ADD [EAX], AL
0x0000000035760010 0000             ADD [EAX], AL
0x0000000035760012 0000             ADD [EAX], AL
0x0000000035760014 0000             ADD [EAX], AL
0x0000000035760016 0000             ADD [EAX], AL
0x0000000035760018 0000             ADD [EAX], AL
0x000000003576001a 0000             ADD [EAX], AL
0x000000003576001c 0000             ADD [EAX], AL
0x000000003576001e 0000             ADD [EAX], AL
0x0000000035760020 0000             ADD [EAX], AL
0x0000000035760022 0000             ADD [EAX], AL
0x0000000035760024 0000             ADD [EAX], AL
0x0000000035760026 0000             ADD [EAX], AL
0x0000000035760028 0000             ADD [EAX], AL
0x000000003576002a 0000             ADD [EAX], AL
0x000000003576002c 0000             ADD [EAX], AL
0x000000003576002e 0000             ADD [EAX], AL
0x0000000035760030 0000             ADD [EAX], AL
0x0000000035760032 0000             ADD [EAX], AL
0x0000000035760034 0000             ADD [EAX], AL
0x0000000035760036 0000             ADD [EAX], AL
0x0000000035760038 0000             ADD [EAX], AL
0x000000003576003a 0000             ADD [EAX], AL
0x000000003576003c 0000             ADD [EAX], AL
0x000000003576003e 0000             ADD [EAX], AL

Process: EXCEL.EXE Pid: 1272 Address: 0x6f440000
Vad Tag: VadS Protection: PAGE_EXECUTE_READWRITE
Flags: CommitCharge: 16, MemCommit: 1, PrivateMemory: 1, Protection: 6

0x000000006f440000  64 74 72 52 00 00 00 00 00 18 44 6f 00 00 00 00   dtrR......Do....
0x000000006f440010  00 00 00 00 00 00 00 00 00 00 00 00 00 00 00 00   ................
0x000000006f440020  00 00 00 00 00 00 00 00 00 00 00 00 00 00 00 00   ................
0x000000006f440030  00 00 00 00 00 00 00 00 00 00 00 00 00 00 00 00   ................

0x000000006f440000 647472           JZ 0x6f440075
0x000000006f440003 52               PUSH EDX
0x000000006f440004 0000             ADD [EAX], AL
0x000000006f440006 0000             ADD [EAX], AL
0x000000006f440008 0018             ADD [EAX], BL
0x000000006f44000a 44               INC ESP
0x000000006f44000b 6f               OUTS DX, DWORD [ESI]
0x000000006f44000c 0000             ADD [EAX], AL
0x000000006f44000e 0000             ADD [EAX], AL
0x000000006f440010 0000             ADD [EAX], AL
0x000000006f440012 0000             ADD [EAX], AL
0x000000006f440014 0000             ADD [EAX], AL
0x000000006f440016 0000             ADD [EAX], AL
0x000000006f440018 0000             ADD [EAX], AL
0x000000006f44001a 0000             ADD [EAX], AL
0x000000006f44001c 0000             ADD [EAX], AL
0x000000006f44001e 0000             ADD [EAX], AL
0x000000006f440020 0000             ADD [EAX], AL
0x000000006f440022 0000             ADD [EAX], AL
0x000000006f440024 0000             ADD [EAX], AL
0x000000006f440026 0000             ADD [EAX], AL
0x000000006f440028 0000             ADD [EAX], AL
0x000000006f44002a 0000             ADD [EAX], AL
0x000000006f44002c 0000             ADD [EAX], AL
0x000000006f44002e 0000             ADD [EAX], AL
0x000000006f440030 0000             ADD [EAX], AL
0x000000006f440032 0000             ADD [EAX], AL
0x000000006f440034 0000             ADD [EAX], AL
0x000000006f440036 0000             ADD [EAX], AL
0x000000006f440038 0000             ADD [EAX], AL
0x000000006f44003a 0000             ADD [EAX], AL
0x000000006f44003c 0000             ADD [EAX], AL
0x000000006f44003e 0000             ADD [EAX], AL

Process: svchost.exe Pid: 3300 Address: 0x56f0000
Vad Tag: VadS Protection: PAGE_EXECUTE_READWRITE
Flags: CommitCharge: 256, MemCommit: 1, PrivateMemory: 1, Protection: 6

0x00000000056f0000  20 00 00 00 e0 ff 0f 00 0c 00 00 00 01 00 07 00   ................
0x00000000056f0010  00 42 00 30 00 70 00 60 00 50 00 c0 00 d0 00 00   .B.0.p.`.P......
0x00000000056f0020  0c 00 4e 00 0c 00 01 05 48 8b 55 28 48 8b 8d c0   ..N.....H.U(H...
0x00000000056f0030  00 00 00 48 8d 54 0a 10 48 89 d7 b9 08 00 1a 00   ...H.T..H.......

0x00000000056f0000 2000             AND [EAX], AL
0x00000000056f0002 0000             ADD [EAX], AL
0x00000000056f0004 e0ff             LOOPNZ 0x56f0005
0x00000000056f0006 0f000c00         STR WORD [EAX+EAX]
0x00000000056f000a 0000             ADD [EAX], AL
0x00000000056f000c 0100             ADD [EAX], EAX
0x00000000056f000e 07               POP ES
0x00000000056f000f 0000             ADD [EAX], AL
0x00000000056f0011 42               INC EDX
0x00000000056f0012 0030             ADD [EAX], DH
0x00000000056f0014 007000           ADD [EAX+0x0], DH
0x00000000056f0017 60               PUSHA
0x00000000056f0018 005000           ADD [EAX+0x0], DL
0x00000000056f001b c000d0           ROL BYTE [EAX], 0xd0
0x00000000056f001e 0000             ADD [EAX], AL
0x00000000056f0020 0c00             OR AL, 0x0
0x00000000056f0022 4e               DEC ESI
0x00000000056f0023 000c00           ADD [EAX+EAX], CL
0x00000000056f0026 0105488b5528     ADD [0x28558b48], EAX
0x00000000056f002c 48               DEC EAX
0x00000000056f002d 8b8dc0000000     MOV ECX, [EBP+0xc0]
0x00000000056f0033 48               DEC EAX
0x00000000056f0034 8d540a10         LEA EDX, [EDX+ECX+0x10]
0x00000000056f0038 48               DEC EAX
0x00000000056f0039 89d7             MOV EDI, EDX
0x00000000056f003b b908001a00       MOV ECX, 0x1a0008

Process: svchost.exe Pid: 3300 Address: 0x5670000
Vad Tag: VadS Protection: PAGE_EXECUTE_READWRITE
Flags: CommitCharge: 128, MemCommit: 1, PrivateMemory: 1, Protection: 6

0x0000000005670000  20 00 00 00 e0 ff 07 00 0c 00 00 00 01 00 07 00   ................
0x0000000005670010  00 42 00 30 00 70 00 60 00 50 00 c0 00 d0 00 00   .B.0.p.`.P......
0x0000000005670020  08 00 42 00 00 00 00 05 48 8b 45 20 48 89 c2 48   ..B.....H.E.H..H
0x0000000005670030  8b 45 18 48 8b 00 48 89 02 48 8b 45 20 81 00 b8   .E.H..H..H.E....

0x0000000005670000 2000             AND [EAX], AL
0x0000000005670002 0000             ADD [EAX], AL
0x0000000005670004 e0ff             LOOPNZ 0x5670005
0x0000000005670006 07               POP ES
0x0000000005670007 000c00           ADD [EAX+EAX], CL
0x000000000567000a 0000             ADD [EAX], AL
0x000000000567000c 0100             ADD [EAX], EAX
0x000000000567000e 07               POP ES
0x000000000567000f 0000             ADD [EAX], AL
0x0000000005670011 42               INC EDX
0x0000000005670012 0030             ADD [EAX], DH
0x0000000005670014 007000           ADD [EAX+0x0], DH
0x0000000005670017 60               PUSHA
0x0000000005670018 005000           ADD [EAX+0x0], DL
0x000000000567001b c000d0           ROL BYTE [EAX], 0xd0
0x000000000567001e 0000             ADD [EAX], AL
0x0000000005670020 0800             OR [EAX], AL
0x0000000005670022 42               INC EDX
0x0000000005670023 0000             ADD [EAX], AL
0x0000000005670025 0000             ADD [EAX], AL
0x0000000005670027 05488b4520       ADD EAX, 0x20458b48
0x000000000567002c 48               DEC EAX
0x000000000567002d 89c2             MOV EDX, EAX
0x000000000567002f 48               DEC EAX
0x0000000005670030 8b4518           MOV EAX, [EBP+0x18]
0x0000000005670033 48               DEC EAX
0x0000000005670034 8b00             MOV EAX, [EAX]
0x0000000005670036 48               DEC EAX
0x0000000005670037 8902             MOV [EDX], EAX
0x0000000005670039 48               DEC EAX
0x000000000567003a 8b4520           MOV EAX, [EBP+0x20]
0x000000000567003d 81               DB 0x81
0x000000000567003e 00               DB 0x0
0x000000000567003f b8               DB 0xb8

Process: OUTLOOK.EXE Pid: 3688 Address: 0x6b40000
Vad Tag: VadS Protection: PAGE_EXECUTE_READWRITE
Flags: CommitCharge: 1, PrivateMemory: 1, Protection: 6

0x0000000006b40000  98 5a 3e 84 0d 6b 00 01 ee ff ee ff 00 00 00 00   .Z>..k..........
0x0000000006b40010  a8 00 b4 06 a8 00 b4 06 00 00 b4 06 00 00 b4 06   ................
0x0000000006b40020  40 00 00 00 88 05 b4 06 00 00 b8 06 3f 00 00 00   @...........?...
0x0000000006b40030  01 00 00 00 00 00 00 00 f0 0f b4 06 f0 0f b4 06   ................

0x0000000006b40000 98               CWDE
0x0000000006b40001 5a               POP EDX
0x0000000006b40002 3e840d6b0001ee   TEST [0xee01006b], CL
0x0000000006b40009 ff               DB 0xff
0x0000000006b4000a ee               OUT DX, AL
0x0000000006b4000b ff00             INC DWORD [EAX]
0x0000000006b4000d 0000             ADD [EAX], AL
0x0000000006b4000f 00a800b406a8     ADD [EAX-0x57f94c00], CH
0x0000000006b40015 00b4060000b406   ADD [ESI+EAX+0x6b40000], DH
0x0000000006b4001c 0000             ADD [EAX], AL
0x0000000006b4001e b406             MOV AH, 0x6
0x0000000006b40020 40               INC EAX
0x0000000006b40021 0000             ADD [EAX], AL
0x0000000006b40023 008805b40600     ADD [EAX+0x6b405], CL
0x0000000006b40029 00b8063f0000     ADD [EAX+0x3f06], BH
0x0000000006b4002f 0001             ADD [ECX], AL
0x0000000006b40031 0000             ADD [EAX], AL
0x0000000006b40033 0000             ADD [EAX], AL
0x0000000006b40035 0000             ADD [EAX], AL
0x0000000006b40037 00f0             ADD AL, DH
0x0000000006b40039 0fb406           LFS EAX, [ESI]
0x0000000006b4003c f00fb406         LFS EAX, [ESI]

Process: OUTLOOK.EXE Pid: 3688 Address: 0x6d40000
Vad Tag: VadS Protection: PAGE_EXECUTE_READWRITE
Flags: CommitCharge: 1, PrivateMemory: 1, Protection: 6

0x0000000006d40000  17 a8 52 a7 c1 ec 00 01 ee ff ee ff 00 00 00 00   ..R.............
0x0000000006d40010  a8 00 d4 06 a8 00 d4 06 00 00 d4 06 00 00 d4 06   ................
0x0000000006d40020  40 00 00 00 88 05 d4 06 00 00 d8 06 3f 00 00 00   @...........?...
0x0000000006d40030  01 00 00 00 00 00 00 00 f0 0f d4 06 f0 0f d4 06   ................

0x0000000006d40000 17               POP SS
0x0000000006d40001 a852             TEST AL, 0x52
0x0000000006d40003 a7               CMPSD
0x0000000006d40004 c1ec00           SHR ESP, 0x0
0x0000000006d40007 01ee             ADD ESI, EBP
0x0000000006d40009 ff               DB 0xff
0x0000000006d4000a ee               OUT DX, AL
0x0000000006d4000b ff00             INC DWORD [EAX]
0x0000000006d4000d 0000             ADD [EAX], AL
0x0000000006d4000f 00a800d406a8     ADD [EAX-0x57f92c00], CH
0x0000000006d40015 00d4             ADD AH, DL
0x0000000006d40017 06               PUSH ES
0x0000000006d40018 0000             ADD [EAX], AL
0x0000000006d4001a d406             AAM 0x6
0x0000000006d4001c 0000             ADD [EAX], AL
0x0000000006d4001e d406             AAM 0x6
0x0000000006d40020 40               INC EAX
0x0000000006d40021 0000             ADD [EAX], AL
0x0000000006d40023 008805d40600     ADD [EAX+0x6d405], CL
0x0000000006d40029 00d8             ADD AL, BL
0x0000000006d4002b 06               PUSH ES
0x0000000006d4002c 3f               AAS
0x0000000006d4002d 0000             ADD [EAX], AL
0x0000000006d4002f 0001             ADD [ECX], AL
0x0000000006d40031 0000             ADD [EAX], AL
0x0000000006d40033 0000             ADD [EAX], AL
0x0000000006d40035 0000             ADD [EAX], AL
0x0000000006d40037 00f0             ADD AL, DH
0x0000000006d40039 0fd406           PADDQ XMM0, [ESI]
0x0000000006d4003c f00fd406         PADDQ XMM0, [ESI]

Process: OUTLOOK.EXE Pid: 3688 Address: 0x7650000
Vad Tag: VadS Protection: PAGE_EXECUTE_READWRITE
Flags: CommitCharge: 1, MemCommit: 1, PrivateMemory: 1, Protection: 6

0x0000000007650000  00 00 00 00 00 00 00 00 00 00 00 00 00 00 00 00   ................
0x0000000007650010  00 00 65 07 00 00 00 00 00 00 00 00 00 00 00 00   ..e.............
0x0000000007650020  10 00 65 07 00 00 00 00 00 00 00 00 00 00 00 00   ..e.............
0x0000000007650030  20 00 65 07 00 00 00 00 00 00 00 00 00 00 00 00   ..e.............

0x0000000007650000 0000             ADD [EAX], AL
0x0000000007650002 0000             ADD [EAX], AL
0x0000000007650004 0000             ADD [EAX], AL
0x0000000007650006 0000             ADD [EAX], AL
0x0000000007650008 0000             ADD [EAX], AL
0x000000000765000a 0000             ADD [EAX], AL
0x000000000765000c 0000             ADD [EAX], AL
0x000000000765000e 0000             ADD [EAX], AL
0x0000000007650010 0000             ADD [EAX], AL
0x0000000007650012 6507             POP ES
0x0000000007650014 0000             ADD [EAX], AL
0x0000000007650016 0000             ADD [EAX], AL
0x0000000007650018 0000             ADD [EAX], AL
0x000000000765001a 0000             ADD [EAX], AL
0x000000000765001c 0000             ADD [EAX], AL
0x000000000765001e 0000             ADD [EAX], AL
0x0000000007650020 1000             ADC [EAX], AL
0x0000000007650022 6507             POP ES
0x0000000007650024 0000             ADD [EAX], AL
0x0000000007650026 0000             ADD [EAX], AL
0x0000000007650028 0000             ADD [EAX], AL
0x000000000765002a 0000             ADD [EAX], AL
0x000000000765002c 0000             ADD [EAX], AL
0x000000000765002e 0000             ADD [EAX], AL
0x0000000007650030 2000             AND [EAX], AL
0x0000000007650032 6507             POP ES
0x0000000007650034 0000             ADD [EAX], AL
0x0000000007650036 0000             ADD [EAX], AL
0x0000000007650038 0000             ADD [EAX], AL
0x000000000765003a 0000             ADD [EAX], AL
0x000000000765003c 0000             ADD [EAX], AL
0x000000000765003e 0000             ADD [EAX], AL

Process: OUTLOOK.EXE Pid: 3688 Address: 0x35760000
Vad Tag: VadS Protection: PAGE_EXECUTE_READWRITE
Flags: CommitCharge: 16, MemCommit: 1, PrivateMemory: 1, Protection: 6

0x0000000035760000  64 74 72 52 00 00 00 00 18 03 76 35 00 00 00 00   dtrR......v5....
0x0000000035760010  00 00 00 00 00 00 00 00 00 00 00 00 00 00 00 00   ................
0x0000000035760020  00 00 00 00 00 00 00 00 00 00 00 00 00 00 00 00   ................
0x0000000035760030  00 00 00 00 00 00 00 00 00 00 00 00 00 00 00 00   ................

0x0000000035760000 647472           JZ 0x35760075
0x0000000035760003 52               PUSH EDX
0x0000000035760004 0000             ADD [EAX], AL
0x0000000035760006 0000             ADD [EAX], AL
0x0000000035760008 1803             SBB [EBX], AL
0x000000003576000a 7635             JBE 0x35760041
0x000000003576000c 0000             ADD [EAX], AL
0x000000003576000e 0000             ADD [EAX], AL
0x0000000035760010 0000             ADD [EAX], AL
0x0000000035760012 0000             ADD [EAX], AL
0x0000000035760014 0000             ADD [EAX], AL
0x0000000035760016 0000             ADD [EAX], AL
0x0000000035760018 0000             ADD [EAX], AL
0x000000003576001a 0000             ADD [EAX], AL
0x000000003576001c 0000             ADD [EAX], AL
0x000000003576001e 0000             ADD [EAX], AL
0x0000000035760020 0000             ADD [EAX], AL
0x0000000035760022 0000             ADD [EAX], AL
0x0000000035760024 0000             ADD [EAX], AL
0x0000000035760026 0000             ADD [EAX], AL
0x0000000035760028 0000             ADD [EAX], AL
0x000000003576002a 0000             ADD [EAX], AL
0x000000003576002c 0000             ADD [EAX], AL
0x000000003576002e 0000             ADD [EAX], AL
0x0000000035760030 0000             ADD [EAX], AL
0x0000000035760032 0000             ADD [EAX], AL
0x0000000035760034 0000             ADD [EAX], AL
0x0000000035760036 0000             ADD [EAX], AL
0x0000000035760038 0000             ADD [EAX], AL
0x000000003576003a 0000             ADD [EAX], AL
0x000000003576003c 0000             ADD [EAX], AL
0x000000003576003e 0000             ADD [EAX], AL

Process: OUTLOOK.EXE Pid: 3688 Address: 0x6f440000
Vad Tag: VadS Protection: PAGE_EXECUTE_READWRITE
Flags: CommitCharge: 16, MemCommit: 1, PrivateMemory: 1, Protection: 6

0x000000006f440000  64 74 72 52 00 00 00 00 00 18 44 6f 00 00 00 00   dtrR......Do....
0x000000006f440010  00 00 00 00 00 00 00 00 00 00 00 00 00 00 00 00   ................
0x000000006f440020  00 00 00 00 00 00 00 00 00 00 00 00 00 00 00 00   ................
0x000000006f440030  00 00 00 00 00 00 00 00 00 00 00 00 00 00 00 00   ................

0x000000006f440000 647472           JZ 0x6f440075
0x000000006f440003 52               PUSH EDX
0x000000006f440004 0000             ADD [EAX], AL
0x000000006f440006 0000             ADD [EAX], AL
0x000000006f440008 0018             ADD [EAX], BL
0x000000006f44000a 44               INC ESP
0x000000006f44000b 6f               OUTS DX, DWORD [ESI]
0x000000006f44000c 0000             ADD [EAX], AL
0x000000006f44000e 0000             ADD [EAX], AL
0x000000006f440010 0000             ADD [EAX], AL
0x000000006f440012 0000             ADD [EAX], AL
0x000000006f440014 0000             ADD [EAX], AL
0x000000006f440016 0000             ADD [EAX], AL
0x000000006f440018 0000             ADD [EAX], AL
0x000000006f44001a 0000             ADD [EAX], AL
0x000000006f44001c 0000             ADD [EAX], AL
0x000000006f44001e 0000             ADD [EAX], AL
0x000000006f440020 0000             ADD [EAX], AL
0x000000006f440022 0000             ADD [EAX], AL
0x000000006f440024 0000             ADD [EAX], AL
0x000000006f440026 0000             ADD [EAX], AL
0x000000006f440028 0000             ADD [EAX], AL
0x000000006f44002a 0000             ADD [EAX], AL
0x000000006f44002c 0000             ADD [EAX], AL
0x000000006f44002e 0000             ADD [EAX], AL
0x000000006f440030 0000             ADD [EAX], AL
0x000000006f440032 0000             ADD [EAX], AL
0x000000006f440034 0000             ADD [EAX], AL
0x000000006f440036 0000             ADD [EAX], AL
0x000000006f440038 0000             ADD [EAX], AL
0x000000006f44003a 0000             ADD [EAX], AL
0x000000006f44003c 0000             ADD [EAX], AL
0x000000006f44003e 0000             ADD [EAX], AL

Process: StikyNot.exe Pid: 1628 Address: 0x2070000
Vad Tag: VadS Protection: PAGE_EXECUTE_READWRITE
Flags: CommitCharge: 1, MemCommit: 1, PrivateMemory: 1, Protection: 6

0x0000000002070000  00 00 00 00 00 00 00 00 00 00 00 00 00 00 00 00   ................
0x0000000002070010  00 00 00 00 00 00 00 00 00 00 00 00 00 00 00 00   ................
0x0000000002070020  00 00 07 02 00 00 00 00 00 00 00 00 00 00 00 00   ................
0x0000000002070030  00 00 00 00 00 00 00 00 00 00 00 00 00 00 00 00   ................

0x0000000002070000 0000             ADD [EAX], AL
0x0000000002070002 0000             ADD [EAX], AL
0x0000000002070004 0000             ADD [EAX], AL
0x0000000002070006 0000             ADD [EAX], AL
0x0000000002070008 0000             ADD [EAX], AL
0x000000000207000a 0000             ADD [EAX], AL
0x000000000207000c 0000             ADD [EAX], AL
0x000000000207000e 0000             ADD [EAX], AL
0x0000000002070010 0000             ADD [EAX], AL
0x0000000002070012 0000             ADD [EAX], AL
0x0000000002070014 0000             ADD [EAX], AL
0x0000000002070016 0000             ADD [EAX], AL
0x0000000002070018 0000             ADD [EAX], AL
0x000000000207001a 0000             ADD [EAX], AL
0x000000000207001c 0000             ADD [EAX], AL
0x000000000207001e 0000             ADD [EAX], AL
0x0000000002070020 0000             ADD [EAX], AL
0x0000000002070022 07               POP ES
0x0000000002070023 0200             ADD AL, [EAX]
0x0000000002070025 0000             ADD [EAX], AL
0x0000000002070027 0000             ADD [EAX], AL
0x0000000002070029 0000             ADD [EAX], AL
0x000000000207002b 0000             ADD [EAX], AL
0x000000000207002d 0000             ADD [EAX], AL
0x000000000207002f 0000             ADD [EAX], AL
0x0000000002070031 0000             ADD [EAX], AL
0x0000000002070033 0000             ADD [EAX], AL
0x0000000002070035 0000             ADD [EAX], AL
0x0000000002070037 0000             ADD [EAX], AL
0x0000000002070039 0000             ADD [EAX], AL
0x000000000207003b 0000             ADD [EAX], AL
0x000000000207003d 0000             ADD [EAX], AL
0x000000000207003f 00               DB 0x0

Process: iexplore.exe Pid: 3576 Address: 0x2230000
Vad Tag: VadS Protection: PAGE_EXECUTE_READWRITE
Flags: CommitCharge: 2, MemCommit: 1, PrivateMemory: 1, Protection: 6

0x0000000002230000  b0 00 eb 70 b0 01 eb 6c b0 02 eb 68 b0 03 eb 64   ...p...l...h...d
0x0000000002230010  b0 04 eb 60 b0 05 eb 5c b0 06 eb 58 b0 07 eb 54   ...`...\...X...T
0x0000000002230020  b0 08 eb 50 b0 09 eb 4c b0 0a eb 48 b0 0b eb 44   ...P...L...H...D
0x0000000002230030  b0 0c eb 40 b0 0d eb 3c b0 0e eb 38 b0 0f eb 34   ...@...<...8...4

0x0000000002230000 b000             MOV AL, 0x0
0x0000000002230002 eb70             JMP 0x2230074
0x0000000002230004 b001             MOV AL, 0x1
0x0000000002230006 eb6c             JMP 0x2230074
0x0000000002230008 b002             MOV AL, 0x2
0x000000000223000a eb68             JMP 0x2230074
0x000000000223000c b003             MOV AL, 0x3
0x000000000223000e eb64             JMP 0x2230074
0x0000000002230010 b004             MOV AL, 0x4
0x0000000002230012 eb60             JMP 0x2230074
0x0000000002230014 b005             MOV AL, 0x5
0x0000000002230016 eb5c             JMP 0x2230074
0x0000000002230018 b006             MOV AL, 0x6
0x000000000223001a eb58             JMP 0x2230074
0x000000000223001c b007             MOV AL, 0x7
0x000000000223001e eb54             JMP 0x2230074
0x0000000002230020 b008             MOV AL, 0x8
0x0000000002230022 eb50             JMP 0x2230074
0x0000000002230024 b009             MOV AL, 0x9
0x0000000002230026 eb4c             JMP 0x2230074
0x0000000002230028 b00a             MOV AL, 0xa
0x000000000223002a eb48             JMP 0x2230074
0x000000000223002c b00b             MOV AL, 0xb
0x000000000223002e eb44             JMP 0x2230074
0x0000000002230030 b00c             MOV AL, 0xc
0x0000000002230032 eb40             JMP 0x2230074
0x0000000002230034 b00d             MOV AL, 0xd
0x0000000002230036 eb3c             JMP 0x2230074
0x0000000002230038 b00e             MOV AL, 0xe
0x000000000223003a eb38             JMP 0x2230074
0x000000000223003c b00f             MOV AL, 0xf
0x000000000223003e eb34             JMP 0x2230074

Process: iexplore.exe Pid: 3576 Address: 0x5fff0000
Vad Tag: VadS Protection: PAGE_EXECUTE_READWRITE
Flags: CommitCharge: 16, MemCommit: 1, PrivateMemory: 1, Protection: 6

0x000000005fff0000  64 74 72 52 00 00 00 00 00 02 ff 5f 00 00 00 00   dtrR......._....
0x000000005fff0010  00 00 00 00 00 00 00 00 00 00 00 00 00 00 00 00   ................
0x000000005fff0020  00 00 00 00 00 00 00 00 00 00 00 00 00 00 00 00   ................
0x000000005fff0030  00 00 00 00 00 00 00 00 00 00 00 00 00 00 00 00   ................

0x000000005fff0000 647472           JZ 0x5fff0075
0x000000005fff0003 52               PUSH EDX
0x000000005fff0004 0000             ADD [EAX], AL
0x000000005fff0006 0000             ADD [EAX], AL
0x000000005fff0008 0002             ADD [EDX], AL
0x000000005fff000a ff5f00           CALL FAR DWORD [EDI+0x0]
0x000000005fff000d 0000             ADD [EAX], AL
0x000000005fff000f 0000             ADD [EAX], AL
0x000000005fff0011 0000             ADD [EAX], AL
0x000000005fff0013 0000             ADD [EAX], AL
0x000000005fff0015 0000             ADD [EAX], AL
0x000000005fff0017 0000             ADD [EAX], AL
0x000000005fff0019 0000             ADD [EAX], AL
0x000000005fff001b 0000             ADD [EAX], AL
0x000000005fff001d 0000             ADD [EAX], AL
0x000000005fff001f 0000             ADD [EAX], AL
0x000000005fff0021 0000             ADD [EAX], AL
0x000000005fff0023 0000             ADD [EAX], AL
0x000000005fff0025 0000             ADD [EAX], AL
0x000000005fff0027 0000             ADD [EAX], AL
0x000000005fff0029 0000             ADD [EAX], AL
0x000000005fff002b 0000             ADD [EAX], AL
0x000000005fff002d 0000             ADD [EAX], AL
0x000000005fff002f 0000             ADD [EAX], AL
0x000000005fff0031 0000             ADD [EAX], AL
0x000000005fff0033 0000             ADD [EAX], AL
0x000000005fff0035 0000             ADD [EAX], AL
0x000000005fff0037 0000             ADD [EAX], AL
0x000000005fff0039 0000             ADD [EAX], AL
0x000000005fff003b 0000             ADD [EAX], AL
0x000000005fff003d 0000             ADD [EAX], AL
0x000000005fff003f 00               DB 0x0

Process: iexplore.exe Pid: 2780 Address: 0x22a0000
Vad Tag: VadS Protection: PAGE_EXECUTE_READWRITE
Flags: CommitCharge: 2, MemCommit: 1, PrivateMemory: 1, Protection: 6

0x00000000022a0000  b0 00 eb 70 b0 01 eb 6c b0 02 eb 68 b0 03 eb 64   ...p...l...h...d
0x00000000022a0010  b0 04 eb 60 b0 05 eb 5c b0 06 eb 58 b0 07 eb 54   ...`...\...X...T
0x00000000022a0020  b0 08 eb 50 b0 09 eb 4c b0 0a eb 48 b0 0b eb 44   ...P...L...H...D
0x00000000022a0030  b0 0c eb 40 b0 0d eb 3c b0 0e eb 38 b0 0f eb 34   ...@...<...8...4

0x00000000022a0000 b000             MOV AL, 0x0
0x00000000022a0002 eb70             JMP 0x22a0074
0x00000000022a0004 b001             MOV AL, 0x1
0x00000000022a0006 eb6c             JMP 0x22a0074
0x00000000022a0008 b002             MOV AL, 0x2
0x00000000022a000a eb68             JMP 0x22a0074
0x00000000022a000c b003             MOV AL, 0x3
0x00000000022a000e eb64             JMP 0x22a0074
0x00000000022a0010 b004             MOV AL, 0x4
0x00000000022a0012 eb60             JMP 0x22a0074
0x00000000022a0014 b005             MOV AL, 0x5
0x00000000022a0016 eb5c             JMP 0x22a0074
0x00000000022a0018 b006             MOV AL, 0x6
0x00000000022a001a eb58             JMP 0x22a0074
0x00000000022a001c b007             MOV AL, 0x7
0x00000000022a001e eb54             JMP 0x22a0074
0x00000000022a0020 b008             MOV AL, 0x8
0x00000000022a0022 eb50             JMP 0x22a0074
0x00000000022a0024 b009             MOV AL, 0x9
0x00000000022a0026 eb4c             JMP 0x22a0074
0x00000000022a0028 b00a             MOV AL, 0xa
0x00000000022a002a eb48             JMP 0x22a0074
0x00000000022a002c b00b             MOV AL, 0xb
0x00000000022a002e eb44             JMP 0x22a0074
0x00000000022a0030 b00c             MOV AL, 0xc
0x00000000022a0032 eb40             JMP 0x22a0074
0x00000000022a0034 b00d             MOV AL, 0xd
0x00000000022a0036 eb3c             JMP 0x22a0074
0x00000000022a0038 b00e             MOV AL, 0xe
0x00000000022a003a eb38             JMP 0x22a0074
0x00000000022a003c b00f             MOV AL, 0xf
0x00000000022a003e eb34             JMP 0x22a0074

Process: iexplore.exe Pid: 2780 Address: 0x5fff0000
Vad Tag: VadS Protection: PAGE_EXECUTE_READWRITE
Flags: CommitCharge: 16, MemCommit: 1, PrivateMemory: 1, Protection: 6

0x000000005fff0000  64 74 72 52 00 00 00 00 20 03 ff 5f 00 00 00 00   dtrR......._....
0x000000005fff0010  00 00 00 00 00 00 00 00 00 00 00 00 00 00 00 00   ................
0x000000005fff0020  00 00 00 00 00 00 00 00 00 00 00 00 00 00 00 00   ................
0x000000005fff0030  00 00 00 00 00 00 00 00 00 00 00 00 00 00 00 00   ................

0x000000005fff0000 647472           JZ 0x5fff0075
0x000000005fff0003 52               PUSH EDX
0x000000005fff0004 0000             ADD [EAX], AL
0x000000005fff0006 0000             ADD [EAX], AL
0x000000005fff0008 2003             AND [EBX], AL
0x000000005fff000a ff5f00           CALL FAR DWORD [EDI+0x0]
0x000000005fff000d 0000             ADD [EAX], AL
0x000000005fff000f 0000             ADD [EAX], AL
0x000000005fff0011 0000             ADD [EAX], AL
0x000000005fff0013 0000             ADD [EAX], AL
0x000000005fff0015 0000             ADD [EAX], AL
0x000000005fff0017 0000             ADD [EAX], AL
0x000000005fff0019 0000             ADD [EAX], AL
0x000000005fff001b 0000             ADD [EAX], AL
0x000000005fff001d 0000             ADD [EAX], AL
0x000000005fff001f 0000             ADD [EAX], AL
0x000000005fff0021 0000             ADD [EAX], AL
0x000000005fff0023 0000             ADD [EAX], AL
0x000000005fff0025 0000             ADD [EAX], AL
0x000000005fff0027 0000             ADD [EAX], AL
0x000000005fff0029 0000             ADD [EAX], AL
0x000000005fff002b 0000             ADD [EAX], AL
0x000000005fff002d 0000             ADD [EAX], AL
0x000000005fff002f 0000             ADD [EAX], AL
0x000000005fff0031 0000             ADD [EAX], AL
0x000000005fff0033 0000             ADD [EAX], AL
0x000000005fff0035 0000             ADD [EAX], AL
0x000000005fff0037 0000             ADD [EAX], AL
0x000000005fff0039 0000             ADD [EAX], AL
0x000000005fff003b 0000             ADD [EAX], AL
0x000000005fff003d 0000             ADD [EAX], AL
0x000000005fff003f 00               DB 0x0

Process: hfs.exe Pid: 3952 Address: 0x230000
Vad Tag: VadS Protection: PAGE_EXECUTE_READWRITE
Flags: CommitCharge: 1, MemCommit: 1, PrivateMemory: 1, Protection: 6

0x0000000000230000  00 00 00 00 59 e9 52 d3 1f 00 e8 f5 ff ff ff 00   ....Y.R.........
0x0000000000230010  00 00 00 00 00 00 00 e8 e8 ff ff ff 0a 00 23 00   ..............#.
0x0000000000230020  00 00 00 00 e8 db ff ff ff 17 00 23 00 00 00 00   ...........#....
0x0000000000230030  00 e8 ce ff ff ff 24 00 23 00 00 00 00 00 e8 c1   ......$.#.......

0x0000000000230000 0000             ADD [EAX], AL
0x0000000000230002 0000             ADD [EAX], AL
0x0000000000230004 59               POP ECX
0x0000000000230005 e952d31f00       JMP 0x42d35c
0x000000000023000a e8f5ffffff       CALL 0x230004
0x000000000023000f 0000             ADD [EAX], AL
0x0000000000230011 0000             ADD [EAX], AL
0x0000000000230013 0000             ADD [EAX], AL
0x0000000000230015 0000             ADD [EAX], AL
0x0000000000230017 e8e8ffffff       CALL 0x230004
0x000000000023001c 0a00             OR AL, [EAX]
0x000000000023001e 2300             AND EAX, [EAX]
0x0000000000230020 0000             ADD [EAX], AL
0x0000000000230022 0000             ADD [EAX], AL
0x0000000000230024 e8dbffffff       CALL 0x230004
0x0000000000230029 17               POP SS
0x000000000023002a 0023             ADD [EBX], AH
0x000000000023002c 0000             ADD [EAX], AL
0x000000000023002e 0000             ADD [EAX], AL
0x0000000000230030 00e8             ADD AL, CH
0x0000000000230032 ce               INTO
0x0000000000230033 ff               DB 0xff
0x0000000000230034 ff               DB 0xff
0x0000000000230035 ff2400           JMP DWORD [EAX+EAX]
0x0000000000230038 2300             AND EAX, [EAX]
0x000000000023003a 0000             ADD [EAX], AL
0x000000000023003c 0000             ADD [EAX], AL
0x000000000023003e e8               DB 0xe8
0x000000000023003f c1               DB 0xc1

Process: POWERPNT.EXE Pid: 4048 Address: 0x4410000
Vad Tag: VadS Protection: PAGE_EXECUTE_READWRITE
Flags: CommitCharge: 1, PrivateMemory: 1, Protection: 6

0x0000000004410000  13 51 92 b7 cc d8 00 01 ee ff ee ff 00 00 00 00   .Q..............
0x0000000004410010  a8 00 41 04 a8 00 41 04 00 00 41 04 00 00 41 04   ..A...A...A...A.
0x0000000004410020  40 00 00 00 88 05 41 04 00 00 45 04 3f 00 00 00   @.....A...E.?...
0x0000000004410030  01 00 00 00 00 00 00 00 f0 0f 41 04 f0 0f 41 04   ..........A...A.

0x0000000004410000 135192           ADC EDX, [ECX-0x6e]
0x0000000004410003 b7cc             MOV BH, 0xcc
0x0000000004410005 d800             FADD DWORD [EAX]
0x0000000004410007 01ee             ADD ESI, EBP
0x0000000004410009 ff               DB 0xff
0x000000000441000a ee               OUT DX, AL
0x000000000441000b ff00             INC DWORD [EAX]
0x000000000441000d 0000             ADD [EAX], AL
0x000000000441000f 00a8004104a8     ADD [EAX-0x57fbbf00], CH
0x0000000004410015 004104           ADD [ECX+0x4], AL
0x0000000004410018 0000             ADD [EAX], AL
0x000000000441001a 41               INC ECX
0x000000000441001b 0400             ADD AL, 0x0
0x000000000441001d 004104           ADD [ECX+0x4], AL
0x0000000004410020 40               INC EAX
0x0000000004410021 0000             ADD [EAX], AL
0x0000000004410023 008805410400     ADD [EAX+0x44105], CL
0x0000000004410029 004504           ADD [EBP+0x4], AL
0x000000000441002c 3f               AAS
0x000000000441002d 0000             ADD [EAX], AL
0x000000000441002f 0001             ADD [ECX], AL
0x0000000004410031 0000             ADD [EAX], AL
0x0000000004410033 0000             ADD [EAX], AL
0x0000000004410035 0000             ADD [EAX], AL
0x0000000004410037 00f0             ADD AL, DH
0x0000000004410039 0f4104f0         CMOVNO EAX, [EAX+ESI*8]
0x000000000441003d 0f               DB 0xf
0x000000000441003e 41               INC ECX
0x000000000441003f 04               DB 0x4

Process: POWERPNT.EXE Pid: 4048 Address: 0x47a0000
Vad Tag: VadS Protection: PAGE_EXECUTE_READWRITE
Flags: CommitCharge: 1, PrivateMemory: 1, Protection: 6

0x00000000047a0000  96 b6 ff ad 14 44 00 01 ee ff ee ff 00 00 00 00   .....D..........
0x00000000047a0010  a8 00 7a 04 a8 00 7a 04 00 00 7a 04 00 00 7a 04   ..z...z...z...z.
0x00000000047a0020  40 00 00 00 88 05 7a 04 00 00 7e 04 3f 00 00 00   @.....z...~.?...
0x00000000047a0030  01 00 00 00 00 00 00 00 f0 0f 7a 04 f0 0f 7a 04   ..........z...z.

0x00000000047a0000 96               XCHG ESI, EAX
0x00000000047a0001 b6ff             MOV DH, 0xff
0x00000000047a0003 ad               LODSD
0x00000000047a0004 1444             ADC AL, 0x44
0x00000000047a0006 0001             ADD [ECX], AL
0x00000000047a0008 ee               OUT DX, AL
0x00000000047a0009 ff               DB 0xff
0x00000000047a000a ee               OUT DX, AL
0x00000000047a000b ff00             INC DWORD [EAX]
0x00000000047a000d 0000             ADD [EAX], AL
0x00000000047a000f 00a8007a04a8     ADD [EAX-0x57fb8600], CH
0x00000000047a0015 007a04           ADD [EDX+0x4], BH
0x00000000047a0018 0000             ADD [EAX], AL
0x00000000047a001a 7a04             JP 0x47a0020
0x00000000047a001c 0000             ADD [EAX], AL
0x00000000047a001e 7a04             JP 0x47a0024
0x00000000047a0020 40               INC EAX
0x00000000047a0021 0000             ADD [EAX], AL
0x00000000047a0023 0088057a0400     ADD [EAX+0x47a05], CL
0x00000000047a0029 007e04           ADD [ESI+0x4], BH
0x00000000047a002c 3f               AAS
0x00000000047a002d 0000             ADD [EAX], AL
0x00000000047a002f 0001             ADD [ECX], AL
0x00000000047a0031 0000             ADD [EAX], AL
0x00000000047a0033 0000             ADD [EAX], AL
0x00000000047a0035 0000             ADD [EAX], AL
0x00000000047a0037 00f0             ADD AL, DH
0x00000000047a0039 0f               DB 0xf
0x00000000047a003a 7a04             JP 0x47a0040
0x00000000047a003c f0               DB 0xf0
0x00000000047a003d 0f               DB 0xf
0x00000000047a003e 7a04             JP 0x47a0044

Process: POWERPNT.EXE Pid: 4048 Address: 0x35760000
Vad Tag: VadS Protection: PAGE_EXECUTE_READWRITE
Flags: CommitCharge: 16, MemCommit: 1, PrivateMemory: 1, Protection: 6

0x0000000035760000  64 74 72 52 00 00 00 00 18 03 76 35 00 00 00 00   dtrR......v5....
0x0000000035760010  00 00 00 00 00 00 00 00 00 00 00 00 00 00 00 00   ................
0x0000000035760020  00 00 00 00 00 00 00 00 00 00 00 00 00 00 00 00   ................
0x0000000035760030  00 00 00 00 00 00 00 00 00 00 00 00 00 00 00 00   ................

0x0000000035760000 647472           JZ 0x35760075
0x0000000035760003 52               PUSH EDX
0x0000000035760004 0000             ADD [EAX], AL
0x0000000035760006 0000             ADD [EAX], AL
0x0000000035760008 1803             SBB [EBX], AL
0x000000003576000a 7635             JBE 0x35760041
0x000000003576000c 0000             ADD [EAX], AL
0x000000003576000e 0000             ADD [EAX], AL
0x0000000035760010 0000             ADD [EAX], AL
0x0000000035760012 0000             ADD [EAX], AL
0x0000000035760014 0000             ADD [EAX], AL
0x0000000035760016 0000             ADD [EAX], AL
0x0000000035760018 0000             ADD [EAX], AL
0x000000003576001a 0000             ADD [EAX], AL
0x000000003576001c 0000             ADD [EAX], AL
0x000000003576001e 0000             ADD [EAX], AL
0x0000000035760020 0000             ADD [EAX], AL
0x0000000035760022 0000             ADD [EAX], AL
0x0000000035760024 0000             ADD [EAX], AL
0x0000000035760026 0000             ADD [EAX], AL
0x0000000035760028 0000             ADD [EAX], AL
0x000000003576002a 0000             ADD [EAX], AL
0x000000003576002c 0000             ADD [EAX], AL
0x000000003576002e 0000             ADD [EAX], AL
0x0000000035760030 0000             ADD [EAX], AL
0x0000000035760032 0000             ADD [EAX], AL
0x0000000035760034 0000             ADD [EAX], AL
0x0000000035760036 0000             ADD [EAX], AL
0x0000000035760038 0000             ADD [EAX], AL
0x000000003576003a 0000             ADD [EAX], AL
0x000000003576003c 0000             ADD [EAX], AL
0x000000003576003e 0000             ADD [EAX], AL

Process: POWERPNT.EXE Pid: 4048 Address: 0x6f440000
Vad Tag: VadS Protection: PAGE_EXECUTE_READWRITE
Flags: CommitCharge: 16, MemCommit: 1, PrivateMemory: 1, Protection: 6

0x000000006f440000  64 74 72 52 00 00 00 00 00 18 44 6f 00 00 00 00   dtrR......Do....
0x000000006f440010  00 00 00 00 00 00 00 00 00 00 00 00 00 00 00 00   ................
0x000000006f440020  00 00 00 00 00 00 00 00 00 00 00 00 00 00 00 00   ................
0x000000006f440030  00 00 00 00 00 00 00 00 00 00 00 00 00 00 00 00   ................

0x000000006f440000 647472           JZ 0x6f440075
0x000000006f440003 52               PUSH EDX
0x000000006f440004 0000             ADD [EAX], AL
0x000000006f440006 0000             ADD [EAX], AL
0x000000006f440008 0018             ADD [EAX], BL
0x000000006f44000a 44               INC ESP
0x000000006f44000b 6f               OUTS DX, DWORD [ESI]
0x000000006f44000c 0000             ADD [EAX], AL
0x000000006f44000e 0000             ADD [EAX], AL
0x000000006f440010 0000             ADD [EAX], AL
0x000000006f440012 0000             ADD [EAX], AL
0x000000006f440014 0000             ADD [EAX], AL
0x000000006f440016 0000             ADD [EAX], AL
0x000000006f440018 0000             ADD [EAX], AL
0x000000006f44001a 0000             ADD [EAX], AL
0x000000006f44001c 0000             ADD [EAX], AL
0x000000006f44001e 0000             ADD [EAX], AL
0x000000006f440020 0000             ADD [EAX], AL
0x000000006f440022 0000             ADD [EAX], AL
0x000000006f440024 0000             ADD [EAX], AL
0x000000006f440026 0000             ADD [EAX], AL
0x000000006f440028 0000             ADD [EAX], AL
0x000000006f44002a 0000             ADD [EAX], AL
0x000000006f44002c 0000             ADD [EAX], AL
0x000000006f44002e 0000             ADD [EAX], AL
0x000000006f440030 0000             ADD [EAX], AL
0x000000006f440032 0000             ADD [EAX], AL
0x000000006f440034 0000             ADD [EAX], AL
0x000000006f440036 0000             ADD [EAX], AL
0x000000006f440038 0000             ADD [EAX], AL
0x000000006f44003a 0000             ADD [EAX], AL
0x000000006f44003c 0000             ADD [EAX], AL
0x000000006f44003e 0000             ADD [EAX], AL

Process: chrome.exe Pid: 3248 Address: 0x4a60000
Vad Tag: VadS Protection: PAGE_EXECUTE_READWRITE
Flags: CommitCharge: 1, MemCommit: 1, PrivateMemory: 1, Protection: 6

0x0000000004a60000  00 00 00 00 00 00 00 00 00 00 00 00 00 00 00 00   ................
0x0000000004a60010  00 00 00 00 00 00 00 00 00 00 00 00 00 00 00 00   ................
0x0000000004a60020  00 00 a6 04 00 00 00 00 00 00 00 00 00 00 00 00   ................
0x0000000004a60030  00 00 00 00 00 00 00 00 00 00 00 00 00 00 00 00   ................

0x0000000004a60000 0000             ADD [EAX], AL
0x0000000004a60002 0000             ADD [EAX], AL
0x0000000004a60004 0000             ADD [EAX], AL
0x0000000004a60006 0000             ADD [EAX], AL
0x0000000004a60008 0000             ADD [EAX], AL
0x0000000004a6000a 0000             ADD [EAX], AL
0x0000000004a6000c 0000             ADD [EAX], AL
0x0000000004a6000e 0000             ADD [EAX], AL
0x0000000004a60010 0000             ADD [EAX], AL
0x0000000004a60012 0000             ADD [EAX], AL
0x0000000004a60014 0000             ADD [EAX], AL
0x0000000004a60016 0000             ADD [EAX], AL
0x0000000004a60018 0000             ADD [EAX], AL
0x0000000004a6001a 0000             ADD [EAX], AL
0x0000000004a6001c 0000             ADD [EAX], AL
0x0000000004a6001e 0000             ADD [EAX], AL
0x0000000004a60020 0000             ADD [EAX], AL
0x0000000004a60022 a6               CMPSB
0x0000000004a60023 0400             ADD AL, 0x0
0x0000000004a60025 0000             ADD [EAX], AL
0x0000000004a60027 0000             ADD [EAX], AL
0x0000000004a60029 0000             ADD [EAX], AL
0x0000000004a6002b 0000             ADD [EAX], AL
0x0000000004a6002d 0000             ADD [EAX], AL
0x0000000004a6002f 0000             ADD [EAX], AL
0x0000000004a60031 0000             ADD [EAX], AL
0x0000000004a60033 0000             ADD [EAX], AL
0x0000000004a60035 0000             ADD [EAX], AL
0x0000000004a60037 0000             ADD [EAX], AL
0x0000000004a60039 0000             ADD [EAX], AL
0x0000000004a6003b 0000             ADD [EAX], AL
0x0000000004a6003d 0000             ADD [EAX], AL
0x0000000004a6003f 00               DB 0x0

Process: wscript.exe Pid: 5116 Address: 0x4470000
Vad Tag: VadS Protection: PAGE_EXECUTE_READWRITE
Flags: CommitCharge: 1, PrivateMemory: 1, Protection: 6

0x0000000004470000  90 0c 10 94 e4 0c 00 01 ee ff ee ff 00 00 00 00   ................
0x0000000004470010  a8 00 47 04 a8 00 47 04 00 00 47 04 00 00 47 04   ..G...G...G...G.
0x0000000004470020  40 00 00 00 88 05 47 04 00 00 4b 04 3f 00 00 00   @.....G...K.?...
0x0000000004470030  01 00 00 00 00 00 00 00 f0 0f 47 04 f0 0f 47 04   ..........G...G.

0x0000000004470000 90               NOP
0x0000000004470001 0c10             OR AL, 0x10
0x0000000004470003 94               XCHG ESP, EAX
0x0000000004470004 e40c             IN AL, 0xc
0x0000000004470006 0001             ADD [ECX], AL
0x0000000004470008 ee               OUT DX, AL
0x0000000004470009 ff               DB 0xff
0x000000000447000a ee               OUT DX, AL
0x000000000447000b ff00             INC DWORD [EAX]
0x000000000447000d 0000             ADD [EAX], AL
0x000000000447000f 00a8004704a8     ADD [EAX-0x57fbb900], CH
0x0000000004470015 004704           ADD [EDI+0x4], AL
0x0000000004470018 0000             ADD [EAX], AL
0x000000000447001a 47               INC EDI
0x000000000447001b 0400             ADD AL, 0x0
0x000000000447001d 004704           ADD [EDI+0x4], AL
0x0000000004470020 40               INC EAX
0x0000000004470021 0000             ADD [EAX], AL
0x0000000004470023 008805470400     ADD [EAX+0x44705], CL
0x0000000004470029 004b04           ADD [EBX+0x4], CL
0x000000000447002c 3f               AAS
0x000000000447002d 0000             ADD [EAX], AL
0x000000000447002f 0001             ADD [ECX], AL
0x0000000004470031 0000             ADD [EAX], AL
0x0000000004470033 0000             ADD [EAX], AL
0x0000000004470035 0000             ADD [EAX], AL
0x0000000004470037 00f0             ADD AL, DH
0x0000000004470039 0f4704f0         CMOVA EAX, [EAX+ESI*8]
0x000000000447003d 0f               DB 0xf
0x000000000447003e 47               INC EDI
0x000000000447003f 04               DB 0x4

Process: wscript.exe Pid: 5116 Address: 0x4510000
Vad Tag: VadS Protection: PAGE_EXECUTE_READWRITE
Flags: CommitCharge: 1, PrivateMemory: 1, Protection: 6

0x0000000004510000  c6 0f b2 fb ec 19 00 01 ee ff ee ff 00 00 00 00   ................
0x0000000004510010  a8 00 51 04 a8 00 51 04 00 00 51 04 00 00 51 04   ..Q...Q...Q...Q.
0x0000000004510020  40 00 00 00 88 05 51 04 00 00 55 04 3f 00 00 00   @.....Q...U.?...
0x0000000004510030  01 00 00 00 00 00 00 00 f0 0f 51 04 f0 0f 51 04   ..........Q...Q.

0x0000000004510000 c6               DB 0xc6
0x0000000004510001 0f               DB 0xf
0x0000000004510002 b2fb             MOV DL, 0xfb
0x0000000004510004 ec               IN AL, DX
0x0000000004510005 1900             SBB [EAX], EAX
0x0000000004510007 01ee             ADD ESI, EBP
0x0000000004510009 ff               DB 0xff
0x000000000451000a ee               OUT DX, AL
0x000000000451000b ff00             INC DWORD [EAX]
0x000000000451000d 0000             ADD [EAX], AL
0x000000000451000f 00a8005104a8     ADD [EAX-0x57fbaf00], CH
0x0000000004510015 005104           ADD [ECX+0x4], DL
0x0000000004510018 0000             ADD [EAX], AL
0x000000000451001a 51               PUSH ECX
0x000000000451001b 0400             ADD AL, 0x0
0x000000000451001d 005104           ADD [ECX+0x4], DL
0x0000000004510020 40               INC EAX
0x0000000004510021 0000             ADD [EAX], AL
0x0000000004510023 008805510400     ADD [EAX+0x45105], CL
0x0000000004510029 005504           ADD [EBP+0x4], DL
0x000000000451002c 3f               AAS
0x000000000451002d 0000             ADD [EAX], AL
0x000000000451002f 0001             ADD [ECX], AL
0x0000000004510031 0000             ADD [EAX], AL
0x0000000004510033 0000             ADD [EAX], AL
0x0000000004510035 0000             ADD [EAX], AL
0x0000000004510037 00f0             ADD AL, DH
0x0000000004510039 0f5104f0         SQRTPS XMM0, [EAX+ESI*8]
0x000000000451003d 0f               DB 0xf
0x000000000451003e 51               PUSH ECX
0x000000000451003f 04               DB 0x4

Process: UWkpjFjDzM.exe Pid: 3496 Address: 0x20000
Vad Tag: VadS Protection: PAGE_EXECUTE_READWRITE
Flags: CommitCharge: 1, MemCommit: 1, PrivateMemory: 1, Protection: 6

0x0000000000020000  da d2 d9 74 24 f4 bb be 7a 43 19 5a 29 c9 b1 47   ...t$...zC.Z)..G
0x0000000000020010  31 5a 18 83 ea fc 03 5a 14 e2 f5 fc e8 82 00 00   1Z.....Z........
0x0000000000020020  00 60 89 e5 31 c0 64 8b 50 30 8b 52 0c 8b 52 14   .`..1.d.P0.R..R.
0x0000000000020030  8b 72 28 0f b7 4a 26 31 ff ac 3c 61 7c 02 2c 20   .r(..J&1..<a|.,.

0x0000000000020000 dad2             FCMOVBE ST0, ST2
0x0000000000020002 d97424f4         FNSTENV [ESP-0xc]
0x0000000000020006 bbbe7a4319       MOV EBX, 0x19437abe
0x000000000002000b 5a               POP EDX
0x000000000002000c 29c9             SUB ECX, ECX
0x000000000002000e b147             MOV CL, 0x47
0x0000000000020010 315a18           XOR [EDX+0x18], EBX
0x0000000000020013 83eafc           SUB EDX, -0x4
0x0000000000020016 035a14           ADD EBX, [EDX+0x14]
0x0000000000020019 e2f5             LOOP 0x20010
0x000000000002001b fc               CLD
0x000000000002001c e882000000       CALL 0x200a3
0x0000000000020021 60               PUSHA
0x0000000000020022 89e5             MOV EBP, ESP
0x0000000000020024 31c0             XOR EAX, EAX
0x0000000000020026 648b5030         MOV EDX, [FS:EAX+0x30]
0x000000000002002a 8b520c           MOV EDX, [EDX+0xc]
0x000000000002002d 8b5214           MOV EDX, [EDX+0x14]
0x0000000000020030 8b7228           MOV ESI, [EDX+0x28]
0x0000000000020033 0fb74a26         MOVZX ECX, WORD [EDX+0x26]
0x0000000000020037 31ff             XOR EDI, EDI
0x0000000000020039 ac               LODSB
0x000000000002003a 3c61             CMP AL, 0x61
0x000000000002003c 7c02             JL 0x20040
0x000000000002003e 2c20             SUB AL, 0x20

Process: UWkpjFjDzM.exe Pid: 3496 Address: 0x230000
Vad Tag: VadS Protection: PAGE_EXECUTE_READWRITE
Flags: CommitCharge: 44, MemCommit: 1, PrivateMemory: 1, Protection: 6

0x0000000000230000  4d 5a e8 00 00 00 00 5b 52 45 55 89 e5 81 c3 64   MZ.....[REU....d
0x0000000000230010  13 00 00 ff d3 81 c3 95 a4 02 00 89 3b 53 6a 04   ............;Sj.
0x0000000000230020  50 ff d0 00 00 00 00 00 00 00 00 00 00 00 00 00   P...............
0x0000000000230030  00 00 00 00 00 00 00 00 00 00 00 00 f8 00 00 00   ................

0x0000000000230000 4d               DEC EBP
0x0000000000230001 5a               POP EDX
0x0000000000230002 e800000000       CALL 0x230007
0x0000000000230007 5b               POP EBX
0x0000000000230008 52               PUSH EDX
0x0000000000230009 45               INC EBP
0x000000000023000a 55               PUSH EBP
0x000000000023000b 89e5             MOV EBP, ESP
0x000000000023000d 81c364130000     ADD EBX, 0x1364
0x0000000000230013 ffd3             CALL EBX
0x0000000000230015 81c395a40200     ADD EBX, 0x2a495
0x000000000023001b 893b             MOV [EBX], EDI
0x000000000023001d 53               PUSH EBX
0x000000000023001e 6a04             PUSH 0x4
0x0000000000230020 50               PUSH EAX
0x0000000000230021 ffd0             CALL EAX
0x0000000000230023 0000             ADD [EAX], AL
0x0000000000230025 0000             ADD [EAX], AL
0x0000000000230027 0000             ADD [EAX], AL
0x0000000000230029 0000             ADD [EAX], AL
0x000000000023002b 0000             ADD [EAX], AL
0x000000000023002d 0000             ADD [EAX], AL
0x000000000023002f 0000             ADD [EAX], AL
0x0000000000230031 0000             ADD [EAX], AL
0x0000000000230033 0000             ADD [EAX], AL
0x0000000000230035 0000             ADD [EAX], AL
0x0000000000230037 0000             ADD [EAX], AL
0x0000000000230039 0000             ADD [EAX], AL
0x000000000023003b 00f8             ADD AL, BH
0x000000000023003d 0000             ADD [EAX], AL
0x000000000023003f 00               DB 0x0

Process: UWkpjFjDzM.exe Pid: 3496 Address: 0x280000
Vad Tag: VadS Protection: PAGE_EXECUTE_READWRITE
Flags: CommitCharge: 49, MemCommit: 1, PrivateMemory: 1, Protection: 6

0x0000000000280000  4d 5a e8 00 00 00 00 5b 52 45 55 89 e5 81 c3 64   MZ.....[REU....d
0x0000000000280010  13 00 00 ff d3 81 c3 95 a4 02 00 89 3b 53 6a 04   ............;Sj.
0x0000000000280020  50 ff d0 00 00 00 00 00 00 00 00 00 00 00 00 00   P...............
0x0000000000280030  00 00 00 00 00 00 00 00 00 00 00 00 f8 00 00 00   ................

0x0000000000280000 4d               DEC EBP
0x0000000000280001 5a               POP EDX
0x0000000000280002 e800000000       CALL 0x280007
0x0000000000280007 5b               POP EBX
0x0000000000280008 52               PUSH EDX
0x0000000000280009 45               INC EBP
0x000000000028000a 55               PUSH EBP
0x000000000028000b 89e5             MOV EBP, ESP
0x000000000028000d 81c364130000     ADD EBX, 0x1364
0x0000000000280013 ffd3             CALL EBX
0x0000000000280015 81c395a40200     ADD EBX, 0x2a495
0x000000000028001b 893b             MOV [EBX], EDI
0x000000000028001d 53               PUSH EBX
0x000000000028001e 6a04             PUSH 0x4
0x0000000000280020 50               PUSH EAX
0x0000000000280021 ffd0             CALL EAX
0x0000000000280023 0000             ADD [EAX], AL
0x0000000000280025 0000             ADD [EAX], AL
0x0000000000280027 0000             ADD [EAX], AL
0x0000000000280029 0000             ADD [EAX], AL
0x000000000028002b 0000             ADD [EAX], AL
0x000000000028002d 0000             ADD [EAX], AL
0x000000000028002f 0000             ADD [EAX], AL
0x0000000000280031 0000             ADD [EAX], AL
0x0000000000280033 0000             ADD [EAX], AL
0x0000000000280035 0000             ADD [EAX], AL
0x0000000000280037 0000             ADD [EAX], AL
0x0000000000280039 0000             ADD [EAX], AL
0x000000000028003b 00f8             ADD AL, BH
0x000000000028003d 0000             ADD [EAX], AL
0x000000000028003f 00               DB 0x0

Process: UWkpjFjDzM.exe Pid: 3496 Address: 0x350000
Vad Tag: VadS Protection: PAGE_EXECUTE_READWRITE
Flags: CommitCharge: 97, MemCommit: 1, PrivateMemory: 1, Protection: 6

0x0000000000350000  4d 5a 90 00 03 00 00 00 04 00 00 00 ff ff 00 00   MZ..............
0x0000000000350010  b8 00 00 00 00 00 00 00 40 00 00 00 00 00 00 00   ........@.......
0x0000000000350020  00 00 00 00 00 00 00 00 00 00 00 00 00 00 00 00   ................
0x0000000000350030  00 00 00 00 00 00 00 00 00 00 00 00 10 01 00 00   ................

0x0000000000350000 4d               DEC EBP
0x0000000000350001 5a               POP EDX
0x0000000000350002 90               NOP
0x0000000000350003 0003             ADD [EBX], AL
0x0000000000350005 0000             ADD [EAX], AL
0x0000000000350007 000400           ADD [EAX+EAX], AL
0x000000000035000a 0000             ADD [EAX], AL
0x000000000035000c ff               DB 0xff
0x000000000035000d ff00             INC DWORD [EAX]
0x000000000035000f 00b800000000     ADD [EAX+0x0], BH
0x0000000000350015 0000             ADD [EAX], AL
0x0000000000350017 004000           ADD [EAX+0x0], AL
0x000000000035001a 0000             ADD [EAX], AL
0x000000000035001c 0000             ADD [EAX], AL
0x000000000035001e 0000             ADD [EAX], AL
0x0000000000350020 0000             ADD [EAX], AL
0x0000000000350022 0000             ADD [EAX], AL
0x0000000000350024 0000             ADD [EAX], AL
0x0000000000350026 0000             ADD [EAX], AL
0x0000000000350028 0000             ADD [EAX], AL
0x000000000035002a 0000             ADD [EAX], AL
0x000000000035002c 0000             ADD [EAX], AL
0x000000000035002e 0000             ADD [EAX], AL
0x0000000000350030 0000             ADD [EAX], AL
0x0000000000350032 0000             ADD [EAX], AL
0x0000000000350034 0000             ADD [EAX], AL
0x0000000000350036 0000             ADD [EAX], AL
0x0000000000350038 0000             ADD [EAX], AL
0x000000000035003a 0000             ADD [EAX], AL
0x000000000035003c 1001             ADC [ECX], AL
0x000000000035003e 0000             ADD [EAX], AL

Process: UWkpjFjDzM.exe Pid: 3496 Address: 0x820000
Vad Tag: VadS Protection: PAGE_EXECUTE_READWRITE
Flags: CommitCharge: 33, MemCommit: 1, PrivateMemory: 1, Protection: 6

0x0000000000820000  4d 5a 90 00 03 00 00 00 04 00 00 00 ff ff 00 00   MZ..............
0x0000000000820010  b8 00 00 00 00 00 00 00 40 00 00 00 00 00 00 00   ........@.......
0x0000000000820020  00 00 00 00 00 00 00 00 00 00 00 00 00 00 00 00   ................
0x0000000000820030  00 00 00 00 00 00 00 00 00 00 00 00 e8 00 00 00   ................

0x0000000000820000 4d               DEC EBP
0x0000000000820001 5a               POP EDX
0x0000000000820002 90               NOP
0x0000000000820003 0003             ADD [EBX], AL
0x0000000000820005 0000             ADD [EAX], AL
0x0000000000820007 000400           ADD [EAX+EAX], AL
0x000000000082000a 0000             ADD [EAX], AL
0x000000000082000c ff               DB 0xff
0x000000000082000d ff00             INC DWORD [EAX]
0x000000000082000f 00b800000000     ADD [EAX+0x0], BH
0x0000000000820015 0000             ADD [EAX], AL
0x0000000000820017 004000           ADD [EAX+0x0], AL
0x000000000082001a 0000             ADD [EAX], AL
0x000000000082001c 0000             ADD [EAX], AL
0x000000000082001e 0000             ADD [EAX], AL
0x0000000000820020 0000             ADD [EAX], AL
0x0000000000820022 0000             ADD [EAX], AL
0x0000000000820024 0000             ADD [EAX], AL
0x0000000000820026 0000             ADD [EAX], AL
0x0000000000820028 0000             ADD [EAX], AL
0x000000000082002a 0000             ADD [EAX], AL
0x000000000082002c 0000             ADD [EAX], AL
0x000000000082002e 0000             ADD [EAX], AL
0x0000000000820030 0000             ADD [EAX], AL
0x0000000000820032 0000             ADD [EAX], AL
0x0000000000820034 0000             ADD [EAX], AL
0x0000000000820036 0000             ADD [EAX], AL
0x0000000000820038 0000             ADD [EAX], AL
0x000000000082003a 0000             ADD [EAX], AL
0x000000000082003c e8               DB 0xe8
0x000000000082003d 0000             ADD [EAX], AL
0x000000000082003f 00               DB 0x0

Process: UWkpjFjDzM.exe Pid: 3496 Address: 0x2950000
Vad Tag: VadS Protection: PAGE_EXECUTE_READWRITE
Flags: CommitCharge: 50, MemCommit: 1, PrivateMemory: 1, Protection: 6

0x0000000002950000  4d 5a 90 00 03 00 00 00 04 00 00 00 ff ff 00 00   MZ..............
0x0000000002950010  b8 00 00 00 00 00 00 00 40 00 00 00 00 00 00 00   ........@.......
0x0000000002950020  00 00 00 00 00 00 00 00 00 00 00 00 00 00 00 00   ................
0x0000000002950030  00 00 00 00 00 00 00 00 00 00 00 00 00 01 00 00   ................

0x0000000002950000 4d               DEC EBP
0x0000000002950001 5a               POP EDX
0x0000000002950002 90               NOP
0x0000000002950003 0003             ADD [EBX], AL
0x0000000002950005 0000             ADD [EAX], AL
0x0000000002950007 000400           ADD [EAX+EAX], AL
0x000000000295000a 0000             ADD [EAX], AL
0x000000000295000c ff               DB 0xff
0x000000000295000d ff00             INC DWORD [EAX]
0x000000000295000f 00b800000000     ADD [EAX+0x0], BH
0x0000000002950015 0000             ADD [EAX], AL
0x0000000002950017 004000           ADD [EAX+0x0], AL
0x000000000295001a 0000             ADD [EAX], AL
0x000000000295001c 0000             ADD [EAX], AL
0x000000000295001e 0000             ADD [EAX], AL
0x0000000002950020 0000             ADD [EAX], AL
0x0000000002950022 0000             ADD [EAX], AL
0x0000000002950024 0000             ADD [EAX], AL
0x0000000002950026 0000             ADD [EAX], AL
0x0000000002950028 0000             ADD [EAX], AL
0x000000000295002a 0000             ADD [EAX], AL
0x000000000295002c 0000             ADD [EAX], AL
0x000000000295002e 0000             ADD [EAX], AL
0x0000000002950030 0000             ADD [EAX], AL
0x0000000002950032 0000             ADD [EAX], AL
0x0000000002950034 0000             ADD [EAX], AL
0x0000000002950036 0000             ADD [EAX], AL
0x0000000002950038 0000             ADD [EAX], AL
0x000000000295003a 0000             ADD [EAX], AL
0x000000000295003c 0001             ADD [ECX], AL
0x000000000295003e 0000             ADD [EAX], AL

Process: UWkpjFjDzM.exe Pid: 3496 Address: 0x2ad0000
Vad Tag: VadS Protection: PAGE_EXECUTE_READWRITE
Flags: CommitCharge: 55, MemCommit: 1, PrivateMemory: 1, Protection: 6

0x0000000002ad0000  4d 5a 90 00 03 00 00 00 04 00 00 00 ff ff 00 00   MZ..............
0x0000000002ad0010  b8 00 00 00 00 00 00 00 40 00 00 00 00 00 00 00   ........@.......
0x0000000002ad0020  00 00 00 00 00 00 00 00 00 00 00 00 00 00 00 00   ................
0x0000000002ad0030  00 00 00 00 00 00 00 00 00 00 00 00 00 01 00 00   ................

0x0000000002ad0000 4d               DEC EBP
0x0000000002ad0001 5a               POP EDX
0x0000000002ad0002 90               NOP
0x0000000002ad0003 0003             ADD [EBX], AL
0x0000000002ad0005 0000             ADD [EAX], AL
0x0000000002ad0007 000400           ADD [EAX+EAX], AL
0x0000000002ad000a 0000             ADD [EAX], AL
0x0000000002ad000c ff               DB 0xff
0x0000000002ad000d ff00             INC DWORD [EAX]
0x0000000002ad000f 00b800000000     ADD [EAX+0x0], BH
0x0000000002ad0015 0000             ADD [EAX], AL
0x0000000002ad0017 004000           ADD [EAX+0x0], AL
0x0000000002ad001a 0000             ADD [EAX], AL
0x0000000002ad001c 0000             ADD [EAX], AL
0x0000000002ad001e 0000             ADD [EAX], AL
0x0000000002ad0020 0000             ADD [EAX], AL
0x0000000002ad0022 0000             ADD [EAX], AL
0x0000000002ad0024 0000             ADD [EAX], AL
0x0000000002ad0026 0000             ADD [EAX], AL
0x0000000002ad0028 0000             ADD [EAX], AL
0x0000000002ad002a 0000             ADD [EAX], AL
0x0000000002ad002c 0000             ADD [EAX], AL
0x0000000002ad002e 0000             ADD [EAX], AL
0x0000000002ad0030 0000             ADD [EAX], AL
0x0000000002ad0032 0000             ADD [EAX], AL
0x0000000002ad0034 0000             ADD [EAX], AL
0x0000000002ad0036 0000             ADD [EAX], AL
0x0000000002ad0038 0000             ADD [EAX], AL
0x0000000002ad003a 0000             ADD [EAX], AL
0x0000000002ad003c 0001             ADD [ECX], AL
0x0000000002ad003e 0000             ADD [EAX], AL

